; Function Attrs: mustprogress nounwind uwtable
define hidden void @_ZN7nanogui8TextArea5clearEv(ptr nocapture noundef nonnull align 8 dereferenceable(288) %0) local_unnamed_addr #3 align 2 personality ptr @__gxx_personality_v0 {
  %2 = getelementptr inbounds i8, ptr %0, i64 144
  %3 = load ptr, ptr %2, align 8
  %4 = getelementptr inbounds i8, ptr %0, i64 152
  %5 = load ptr, ptr %4, align 8
  %.not.i.i = icmp eq ptr %5, %3
  br i1 %.not.i.i, label %_ZNSt6vectorIN7nanogui8TextArea5BlockESaIS2_EE5clearEv.exit, label %.lr.ph.i.i.i.i.i

.lr.ph.i.i.i.i.i:                                 ; preds = %1, %.lr.ph.i.i.i.i.i
  %.05.i.i.i.i.i = phi ptr [ %7, %.lr.ph.i.i.i.i.i ], [ %3, %1 ]
  %6 = getelementptr inbounds i8, ptr %.05.i.i.i.i.i, i64 16
  tail call void @_ZNSt7__cxx1112basic_stringIcSt11char_traitsIcESaIcEED1Ev(ptr noundef nonnull align 8 dereferenceable(32) %6) #15
  %7 = getelementptr inbounds i8, ptr %.05.i.i.i.i.i, i64 64
  %.not.i.i.i.i.i = icmp eq ptr %7, %5
  br i1 %.not.i.i.i.i.i, label %_ZSt8_DestroyIPN7nanogui8TextArea5BlockES2_EvT_S4_RSaIT0_E.exit.i.i, label %.lr.ph.i.i.i.i.i, !llvm.loop !9

_ZSt8_DestroyIPN7nanogui8TextArea5BlockES2_EvT_S4_RSaIT0_E.exit.i.i: ; preds = %.lr.ph.i.i.i.i.i
  store ptr %3, ptr %4, align 8
  br label %_ZNSt6vectorIN7nanogui8TextArea5BlockESaIS2_EE5clearEv.exit

_ZNSt6vectorIN7nanogui8TextArea5BlockESaIS2_EE5clearEv.exit: ; preds = %1, %_ZSt8_DestroyIPN7nanogui8TextArea5BlockES2_EvT_S4_RSaIT0_E.exit.i.i
  %8 = getelementptr inbounds i8, ptr %0, i64 248
  tail call void @llvm.memset.p0.i64(ptr noundef nonnull align 8 dereferenceable(16) %8, i8 0, i64 16, i1 false)
  %9 = getelementptr inbounds i8, ptr %0, i64 272
  tail call void @llvm.memset.p0.i64(ptr noundef nonnull align 8 dereferenceable(16) %9, i8 -1, i64 16, i1 false)
  ret void
}